target datalayout = "e-m:e-p270:32:32-p271:32:32-p272:64:64-i64:64-i128:128-f80:128-n8:16:32:64-S128"
target triple = "x86_64-unknown-linux-gnu"

%struct.BlockCopyState = type { ptr, ptr, i64, i64, i64, i32, %struct.CoMutex, i64, i32, %struct.BlockReqList, %struct.anon.0, i8, ptr, ptr, ptr, %struct.RateLimit }
%struct.CoMutex = type { i32, ptr, %struct.anon, %struct.anon, i32, i32, ptr }
%struct.anon = type { ptr }
%struct.BlockReqList = type { ptr }
%struct.anon.0 = type { ptr }
%struct.RateLimit = type { %struct.QemuMutex, i64, i64, i64, i64, i64 }
%struct.QemuMutex = type { %union.pthread_mutex_t, i8 }
%union.pthread_mutex_t = type { %struct.__pthread_mutex_s }
%struct.__pthread_mutex_s = type { i32, i32, i32, i32, i32, i16, i16, %struct.__pthread_internal_list }
%struct.__pthread_internal_list = type { ptr, ptr }
%struct.QemuLockable = type { ptr, ptr, ptr }

; Function Attrs: nounwind sspstrong uwtable
define internal void @qemu_lockable_unlock(ptr noundef %x) #0 {
entry:
  %x.addr = alloca ptr, align 8
  store ptr %x, ptr %x.addr, align 8
  %0 = load ptr, ptr %x.addr, align 8
  %unlock = getelementptr inbounds %struct.QemuLockable, ptr %0, i32 0, i32 2
  %1 = load ptr, ptr %unlock, align 8
  %2 = load ptr, ptr %x.addr, align 8
  %object = getelementptr inbounds %struct.QemuLockable, ptr %2, i32 0, i32 0
  %3 = load ptr, ptr %object, align 8
  call void %1(ptr noundef %3)
  ret void
}

; Function Attrs: nounwind sspstrong uwtable
define internal void @qemu_lockable_auto_unlock(ptr noundef %x) #0 {
entry:
  %x.addr = alloca ptr, align 8
  store ptr %x, ptr %x.addr, align 8
  %0 = load ptr, ptr %x.addr, align 8
  %tobool = icmp ne ptr %0, null
  br i1 %tobool, label %if.then, label %if.end

if.then:                                          ; preds = %entry
  %1 = load ptr, ptr %x.addr, align 8
  call void @qemu_lockable_unlock(ptr noundef %1)
  br label %if.end

if.end:                                           ; preds = %if.then, %entry
  ret void
}

; Function Attrs: nounwind sspstrong uwtable
define internal void @glib_autoptr_clear_QemuLockable(ptr noundef %_ptr) #0 {
entry:
  %_ptr.addr = alloca ptr, align 8
  store ptr %_ptr, ptr %_ptr.addr, align 8
  %0 = load ptr, ptr %_ptr.addr, align 8
  %tobool = icmp ne ptr %0, null
  br i1 %tobool, label %if.then, label %if.end

if.then:                                          ; preds = %entry
  %1 = load ptr, ptr %_ptr.addr, align 8
  call void @qemu_lockable_auto_unlock(ptr noundef %1)
  br label %if.end

if.end:                                           ; preds = %if.then, %entry
  ret void
}

; Function Attrs: nounwind sspstrong uwtable
define internal void @qemu_lockable_lock(ptr noundef %x) #0 {
entry:
  %x.addr = alloca ptr, align 8
  store ptr %x, ptr %x.addr, align 8
  %0 = load ptr, ptr %x.addr, align 8
  %lock = getelementptr inbounds %struct.QemuLockable, ptr %0, i32 0, i32 1
  %1 = load ptr, ptr %lock, align 8
  %2 = load ptr, ptr %x.addr, align 8
  %object = getelementptr inbounds %struct.QemuLockable, ptr %2, i32 0, i32 0
  %3 = load ptr, ptr %object, align 8
  call void %1(ptr noundef %3)
  ret void
}

; Function Attrs: nounwind sspstrong uwtable
define internal void @glib_autoptr_cleanup_QemuLockable(ptr noundef %_ptr) #0 {
entry:
  %_ptr.addr = alloca ptr, align 8
  store ptr %_ptr, ptr %_ptr.addr, align 8
  %0 = load ptr, ptr %_ptr.addr, align 8
  %1 = load ptr, ptr %0, align 8
  call void @glib_autoptr_clear_QemuLockable(ptr noundef %1)
  ret void
}

; Function Attrs: nounwind sspstrong uwtable
define internal ptr @qemu_lockable_auto_lock(ptr noundef %x) #0 {
entry:
  %x.addr = alloca ptr, align 8
  store ptr %x, ptr %x.addr, align 8
  %0 = load ptr, ptr %x.addr, align 8
  call void @qemu_lockable_lock(ptr noundef %0)
  %1 = load ptr, ptr %x.addr, align 8
  ret ptr %1
}

; Function Attrs: nounwind sspstrong uwtable
define dso_local void @block_copy_reset(ptr noundef %s, i64 noundef %offset, i64 noundef %bytes) #0 {
entry:
  %x.addr.i = alloca ptr, align 8
  %lockable.addr.i = alloca ptr, align 8
  %s.addr = alloca ptr, align 8
  %offset.addr = alloca i64, align 8
  %bytes.addr = alloca i64, align 8
  %qemu_lockable_auto28 = alloca ptr, align 8
  %.compoundliteral = alloca %struct.QemuLockable, align 8
  store ptr %s, ptr %s.addr, align 8
  store i64 %offset, ptr %offset.addr, align 8
  store i64 %bytes, ptr %bytes.addr, align 8
  %0 = load ptr, ptr %s.addr, align 8
  %lock = getelementptr inbounds %struct.BlockCopyState, ptr %0, i32 0, i32 6
  %object = getelementptr inbounds %struct.QemuLockable, ptr %.compoundliteral, i32 0, i32 0
  %1 = load ptr, ptr %s.addr, align 8
  %lock1 = getelementptr inbounds %struct.BlockCopyState, ptr %1, i32 0, i32 6
  store ptr %lock1, ptr %object, align 8
  %lock2 = getelementptr inbounds %struct.QemuLockable, ptr %.compoundliteral, i32 0, i32 1
  store ptr @qemu_co_mutex_lock, ptr %lock2, align 8
  %unlock = getelementptr inbounds %struct.QemuLockable, ptr %.compoundliteral, i32 0, i32 2
  store ptr @qemu_co_mutex_unlock, ptr %unlock, align 8
  store ptr %lock, ptr %x.addr.i, align 8
  store ptr %.compoundliteral, ptr %lockable.addr.i, align 8
  %2 = load ptr, ptr %x.addr.i, align 8
  %tobool.i = icmp ne ptr %2, null
  br i1 %tobool.i, label %cond.true.i, label %cond.false.i

cond.true.i:                                      ; preds = %entry
  %3 = load ptr, ptr %lockable.addr.i, align 8
  br label %qemu_make_lockable.exit

cond.false.i:                                     ; preds = %entry
  br label %qemu_make_lockable.exit

qemu_make_lockable.exit:                          ; preds = %cond.false.i, %cond.true.i
  %cond.i = phi ptr [ %3, %cond.true.i ], [ null, %cond.false.i ]
  %call3 = call ptr @qemu_lockable_auto_lock(ptr noundef %cond.i)
  store ptr %call3, ptr %qemu_lockable_auto28, align 8
  %4 = load ptr, ptr %s.addr, align 8
  %copy_bitmap = getelementptr inbounds %struct.BlockCopyState, ptr %4, i32 0, i32 12
  %5 = load ptr, ptr %copy_bitmap, align 8
  %6 = load i64, ptr %offset.addr, align 8
  %7 = load i64, ptr %bytes.addr, align 8
  call void @bdrv_reset_dirty_bitmap(ptr noundef %5, i64 noundef %6, i64 noundef %7)
  %8 = load ptr, ptr %s.addr, align 8
  %progress = getelementptr inbounds %struct.BlockCopyState, ptr %8, i32 0, i32 13
  %9 = load ptr, ptr %progress, align 8
  %tobool = icmp ne ptr %9, null
  br i1 %tobool, label %if.then, label %if.end

if.then:                                          ; preds = %qemu_make_lockable.exit
  %10 = load ptr, ptr %s.addr, align 8
  %progress4 = getelementptr inbounds %struct.BlockCopyState, ptr %10, i32 0, i32 13
  %11 = load ptr, ptr %progress4, align 8
  %12 = load ptr, ptr %s.addr, align 8
  %copy_bitmap5 = getelementptr inbounds %struct.BlockCopyState, ptr %12, i32 0, i32 12
  %13 = load ptr, ptr %copy_bitmap5, align 8
  %call6 = call i64 @bdrv_get_dirty_count(ptr noundef %13)
  %14 = load ptr, ptr %s.addr, align 8
  %in_flight_bytes = getelementptr inbounds %struct.BlockCopyState, ptr %14, i32 0, i32 7
  %15 = load i64, ptr %in_flight_bytes, align 8
  %add = add i64 %call6, %15
  call void @progress_set_remaining(ptr noundef %11, i64 noundef %add)
  br label %if.end

if.end:                                           ; preds = %if.then, %qemu_make_lockable.exit
  call void @glib_autoptr_cleanup_QemuLockable(ptr noundef %qemu_lockable_auto28)
  ret void
}

; Function Attrs: nounwind sspstrong uwtable
define dso_local i64 @block_copy_reset_unallocated(ptr noundef %s, i64 noundef %offset, ptr noundef %count) #0 {
entry:
  %retval = alloca i64, align 8
  %s.addr = alloca ptr, align 8
  %offset.addr = alloca i64, align 8
  %count.addr = alloca ptr, align 8
  %ret = alloca i32, align 4
  %clusters = alloca i64, align 8
  %bytes = alloca i64, align 8
  store ptr %s, ptr %s.addr, align 8
  store i64 %offset, ptr %offset.addr, align 8
  store ptr %count, ptr %count.addr, align 8
  %0 = load ptr, ptr %s.addr, align 8
  %1 = load i64, ptr %offset.addr, align 8
  %call = call i32 @block_copy_is_cluster_allocated(ptr noundef %0, i64 noundef %1, ptr noundef %clusters)
  store i32 %call, ptr %ret, align 4
  %2 = load i32, ptr %ret, align 4
  %cmp = icmp slt i32 %2, 0
  br i1 %cmp, label %if.then, label %if.end

if.then:                                          ; preds = %entry
  %3 = load i32, ptr %ret, align 4
  %conv = sext i32 %3 to i64
  store i64 %conv, ptr %retval, align 8
  br label %return

if.end:                                           ; preds = %entry
  %4 = load i64, ptr %clusters, align 8
  %5 = load ptr, ptr %s.addr, align 8
  %cluster_size = getelementptr inbounds %struct.BlockCopyState, ptr %5, i32 0, i32 2
  %6 = load i64, ptr %cluster_size, align 8
  %mul = mul i64 %4, %6
  store i64 %mul, ptr %bytes, align 8
  %7 = load i32, ptr %ret, align 4
  %tobool = icmp ne i32 %7, 0
  br i1 %tobool, label %if.end2, label %if.then1

if.then1:                                         ; preds = %if.end
  %8 = load ptr, ptr %s.addr, align 8
  %9 = load i64, ptr %offset.addr, align 8
  %10 = load i64, ptr %bytes, align 8
  call void @block_copy_reset(ptr noundef %8, i64 noundef %9, i64 noundef %10)
  br label %if.end2

if.end2:                                          ; preds = %if.then1, %if.end
  %11 = load i64, ptr %bytes, align 8
  %12 = load ptr, ptr %count.addr, align 8
  store i64 %11, ptr %12, align 8
  %13 = load i32, ptr %ret, align 4
  %conv3 = sext i32 %13 to i64
  store i64 %conv3, ptr %retval, align 8
  br label %return

return:                                           ; preds = %if.end2, %if.then
  %14 = load i64, ptr %retval, align 8
  ret i64 %14
}