; Function Attrs: nounwind sspstrong uwtable
define dso_local range(i64 -2147483648, 2147483648) i64 @block_copy_reset_unallocated(ptr noundef %s, i64 noundef %offset, ptr noundef writeonly captures(none) %count) #0 {
entry:
  %clusters = alloca i64, align 8
  %call = call i32 @block_copy_is_cluster_allocated(ptr noundef %s, i64 noundef %offset, ptr noundef nonnull %clusters)
  %cmp = icmp slt i32 %call, 0
  br i1 %cmp, label %if.then, label %if.end

if.then:                                          ; preds = %entry
  %conv = sext i32 %call to i64
  br label %return

if.end:                                           ; preds = %entry
  %0 = load i64, ptr %clusters, align 8
  %cluster_size = getelementptr inbounds nuw i8, ptr %s, i64 16
  %1 = load i64, ptr %cluster_size, align 8
  %mul = mul i64 %1, %0
  %tobool.not = icmp eq i32 %call, 0
  br i1 %tobool.not, label %if.then1, label %if.end2

if.then1:                                         ; preds = %if.end
  %lock.i = getelementptr inbounds nuw i8, ptr %s, i64 48
  tail call void @qemu_co_mutex_lock(ptr noundef nonnull %lock.i) #14
  %copy_bitmap.i = getelementptr inbounds nuw i8, ptr %s, i64 136
  %2 = load ptr, ptr %copy_bitmap.i, align 8
  tail call void @bdrv_reset_dirty_bitmap(ptr noundef %2, i64 noundef %offset, i64 noundef %mul) #14
  %progress.i = getelementptr inbounds nuw i8, ptr %s, i64 144
  %3 = load ptr, ptr %progress.i, align 8
  %tobool.not.i = icmp eq ptr %3, null
  br i1 %tobool.not.i, label %block_copy_reset.exit, label %if.then.i

if.then.i:                                        ; preds = %if.then1
  %4 = load ptr, ptr %copy_bitmap.i, align 8
  %call6.i = tail call i64 @bdrv_get_dirty_count(ptr noundef %4) #14
  %in_flight_bytes.i = getelementptr inbounds nuw i8, ptr %s, i64 96
  %5 = load i64, ptr %in_flight_bytes.i, align 8
  %add.i = add i64 %5, %call6.i
  tail call void @progress_set_remaining(ptr noundef nonnull %3, i64 noundef %add.i) #14
  br label %block_copy_reset.exit

block_copy_reset.exit:                            ; preds = %if.then1, %if.then.i
  tail call void @qemu_co_mutex_unlock(ptr noundef nonnull %lock.i) #14
  br label %if.end2

if.end2:                                          ; preds = %block_copy_reset.exit, %if.end
  store i64 %mul, ptr %count, align 8
  %conv3 = zext nneg i32 %call to i64
  br label %return

return:                                           ; preds = %if.end2, %if.then
  %retval.0 = phi i64 [ %conv, %if.then ], [ %conv3, %if.end2 ]
  ret i64 %retval.0
}